; Function Attrs: nounwind uwtable
define noalias noundef ptr @Abc_FrameGiaOutputMiniLut(ptr noundef %0) local_unnamed_addr #2 {
  %2 = icmp eq ptr %0, null
  br i1 %2, label %3, label %4

3:                                                ; preds = %1
  %puts = tail call i32 @puts(ptr nonnull dereferenceable(1) @str.20)
  br label %4

4:                                                ; preds = %3, %1
  %5 = getelementptr inbounds nuw i8, ptr %0, i64 584
  tail call void @Gia_ManStopP(ptr noundef nonnull %5) #25
  %6 = getelementptr inbounds nuw i8, ptr %0, i64 600
  %7 = load ptr, ptr %6, align 8, !tbaa !38
  %8 = icmp eq ptr %7, null
  br i1 %8, label %Vec_IntFreeP.exit, label %9

9:                                                ; preds = %4
  %10 = getelementptr inbounds nuw i8, ptr %7, i64 8
  %11 = load ptr, ptr %10, align 8, !tbaa !11
  %.not.i = icmp eq ptr %11, null
  br i1 %.not.i, label %14, label %.thread.i

.thread.i:                                        ; preds = %9
  tail call void @free(ptr noundef nonnull %11) #25
  %12 = load ptr, ptr %6, align 8, !tbaa !38
  %13 = getelementptr inbounds nuw i8, ptr %12, i64 8
  store ptr null, ptr %13, align 8, !tbaa !11
  br label %14

14:                                               ; preds = %.thread.i, %9
  %15 = phi ptr [ %12, %.thread.i ], [ %7, %9 ]
  tail call void @free(ptr noundef nonnull %15) #25
  store ptr null, ptr %6, align 8, !tbaa !38
  br label %Vec_IntFreeP.exit

Vec_IntFreeP.exit:                                ; preds = %4, %14
  %16 = tail call ptr @Abc_FrameReadGia(ptr noundef nonnull %0) #25
  %17 = icmp eq ptr %16, null
  br i1 %17, label %.split11, label %.split

.split11:                                         ; preds = %Vec_IntFreeP.exit
  %puts12 = tail call i32 @puts(ptr nonnull dereferenceable(1) @str.21)
  br label %.split

.split:                                           ; preds = %Vec_IntFreeP.exit, %.split11
  %.sink = phi ptr [ null, %.split11 ], [ %16, %Vec_IntFreeP.exit ]
  %18 = tail call ptr @Gia_ManToMiniLut(ptr noundef %.sink)
  %19 = tail call ptr @Gia_ManFromMiniLut(ptr noundef %18, ptr noundef nonnull %6)
  store ptr %19, ptr %5, align 8, !tbaa !111
  ret ptr %18
}